; Function Attrs: mustprogress nounwind uwtable
define hidden noundef i32 @_ZN9OopMapSet10add_gc_mapEiP6OopMap(ptr noundef nonnull align 8 dereferenceable(24) %0, i32 noundef %1, ptr noundef %2) local_unnamed_addr #2 align 2 {
  store i32 %1, ptr %2, align 8
  %4 = load i32, ptr %0, align 8
  %5 = getelementptr inbounds i8, ptr %0, i64 4
  %6 = load i32, ptr %5, align 4
  %7 = icmp eq i32 %4, %6
  br i1 %7, label %8, label %_ZN9OopMapSet3addEP6OopMap.exit

8:                                                ; preds = %3
  %9 = add nsw i32 %4, 1
  %10 = icmp sgt i32 %4, -1
  %11 = xor i32 %4, -2147483648
  %12 = and i32 %11, %9
  %13 = icmp eq i32 %12, 0
  %14 = and i1 %10, %13
  %15 = tail call range(i32 0, 33) i32 @llvm.ctlz.i32(i32 %9, i1 true)
  %16 = sub nuw nsw i32 32, %15
  %17 = shl nuw i32 1, %16
  %.0.i.i.i.i.i = select i1 %14, i32 %9, i32 %17
  tail call void @_ZN26GrowableArrayWithAllocatorIP6OopMap13GrowableArrayIS1_EE9expand_toEi(ptr noundef nonnull align 8 dereferenceable(16) %0, i32 noundef %.0.i.i.i.i.i)
  %.pre.i.i = load i32, ptr %0, align 8
  br label %_ZN9OopMapSet3addEP6OopMap.exit

_ZN9OopMapSet3addEP6OopMap.exit:                  ; preds = %3, %8
  %18 = phi i32 [ %.pre.i.i, %8 ], [ %4, %3 ]
  %19 = add nsw i32 %18, 1
  store i32 %19, ptr %0, align 8
  %20 = getelementptr inbounds i8, ptr %0, i64 8
  %21 = load ptr, ptr %20, align 8
  %22 = sext i32 %18 to i64
  %23 = getelementptr inbounds ptr, ptr %21, i64 %22
  store ptr %2, ptr %23, align 8
  %24 = getelementptr inbounds i8, ptr %2, i64 12
  store i32 %18, ptr %24, align 4
  ret i32 %18
}